; Function Attrs: mustprogress nofree norecurse nosync nounwind willreturn memory(readwrite, inaccessiblemem: none) uwtable
define internal void @_ZN7rocksdb12_GLOBAL__N_111SliceSaveToEPvmmPc(ptr dead_on_unwind noalias writable writeonly sret(%"class.rocksdb::Status") align 8 captures(none) initializes((0, 6), (8, 16)) %0, ptr noundef readonly captures(none) %1, i64 noundef %2, i64 noundef %3, ptr noundef writeonly captures(none) %4) #6 personality ptr @__gxx_personality_v0 {
  %6 = load ptr, ptr %1, align 8, !tbaa !48
  %7 = getelementptr inbounds nuw i8, ptr %6, i64 %2
  tail call void @llvm.memcpy.p0.p0.i64(ptr align 1 %4, ptr align 1 %7, i64 %3, i1 false)
  %8 = getelementptr inbounds nuw i8, ptr %0, i64 8
  store ptr null, ptr %8, align 8, !tbaa !49, !alias.scope !51
  tail call void @llvm.memset.p0.i64(ptr noundef nonnull align 8 dereferenceable(16) %0, i8 0, i64 6, i1 false), !alias.scope !51
  ret void
}